target datalayout = "e-m:e-p270:32:32-p271:32:32-p272:64:64-i64:64-i128:128-f80:128-n8:16:32:64-S128"
target triple = "x86_64-pc-linux-gnu"

%struct._generic_SUNLinearSolver = type { ptr, ptr, ptr }
%struct._generic_SUNLinearSolver_Ops = type { ptr, ptr, ptr, ptr, ptr, ptr, ptr, ptr, ptr, ptr, ptr, ptr, ptr, ptr, ptr }
%struct.CVodeMemRec = type { ptr, double, ptr, ptr, i32, i32, double, double, ptr, i32, i32, ptr, ptr, i32, [13 x ptr], ptr, ptr, ptr, ptr, ptr, ptr, ptr, ptr, ptr, i32, i32, double, i32, i32, i32, i32, i32, double, double, double, double, double, double, double, double, [14 x double], [6 x double], [13 x double], double, double, double, double, double, double, double, i32, double, i32, i64, i32, i32, i32, double, double, double, double, double, double, double, double, double, double, double, double, i64, i32, i64, i64, i64, i64, i64, i64, i64, i32, double, double, double, i64, i64, i64, i64, ptr, i32, ptr, i32, ptr, ptr, ptr, ptr, ptr, i64, double, i32, i64, double, double, double, i32, double, i32, i32, i32, i32, i32, ptr, i64, i32, [6 x [4 x double]], i32, i64, ptr, i32, ptr, ptr, double, double, double, ptr, ptr, ptr, double, double, i32, i32, i64, ptr, i32, ptr, i32, i32, [13 x double], [13 x double], [13 x ptr], i32 }
%struct._generic_N_Vector = type { ptr, ptr, ptr }
%struct._generic_N_Vector_Ops = type { ptr, ptr, ptr, ptr, ptr, ptr, ptr, ptr, ptr, ptr, ptr, ptr, ptr, ptr, ptr, ptr, ptr, ptr, ptr, ptr, ptr, ptr, ptr, ptr, ptr, ptr, ptr, ptr, ptr, ptr, ptr, ptr, ptr, ptr, ptr, ptr, ptr, ptr, ptr, ptr, ptr, ptr, ptr, ptr, ptr, ptr, ptr, ptr, ptr, ptr, ptr, ptr, ptr, ptr, ptr, ptr }
%struct.CVLsMemRec = type { i32, i32, i32, ptr, ptr, i32, double, i32, double, double, ptr, ptr, ptr, ptr, ptr, ptr, ptr, i64, i64, i64, i64, i64, i64, i64, i64, i64, i64, double, ptr, ptr, ptr, ptr, i32, ptr, ptr, ptr, ptr, i32, ptr, ptr, i32 }
%struct._generic_SUNMatrix = type { ptr, ptr, ptr }
%struct._generic_SUNMatrix_Ops = type { ptr, ptr, ptr, ptr, ptr, ptr, ptr, ptr, ptr, ptr }

@.str = private unnamed_addr constant [116 x i8] c"generated/home/dtcxzyw/WorkSpace/Projects/compilers/llvm-opt-benchmark/bench/sundials/sundials/src/cvode/cvode_ls.c\00", align 1
@.str.1 = private unnamed_addr constant [27 x i8] c"Integrator memory is NULL.\00", align 1
@__func__.CVodeGetLinWorkSpace = private unnamed_addr constant [21 x i8] c"CVodeGetLinWorkSpace\00", align 1
@.str.30 = private unnamed_addr constant [30 x i8] c"Linear solver memory is NULL.\00", align 1

; Function Attrs: nounwind uwtable
define i32 @cvLs_AccessLMem(ptr noundef %0, ptr noundef %1, ptr noundef %2, ptr noundef %3) #0 {
  %5 = alloca i32, align 4
  %6 = alloca ptr, align 8
  %7 = alloca ptr, align 8
  %8 = alloca ptr, align 8
  %9 = alloca ptr, align 8
  store ptr %0, ptr %6, align 8, !tbaa !3
  store ptr %1, ptr %7, align 8, !tbaa !117
  store ptr %2, ptr %8, align 8, !tbaa !119
  store ptr %3, ptr %9, align 8, !tbaa !121
  %10 = load ptr, ptr %6, align 8, !tbaa !3
  %11 = icmp eq ptr %10, null
  br i1 %11, label %12, label %14

12:                                               ; preds = %4
  %13 = load ptr, ptr %7, align 8, !tbaa !117
  call void (ptr, i32, i32, ptr, ptr, ptr, ...) @cvProcessError(ptr noundef null, i32 noundef -1, i32 noundef 1930, ptr noundef %13, ptr noundef @.str, ptr noundef @.str.1)
  store i32 -1, ptr %5, align 4
  br label %32

14:                                               ; preds = %4
  %15 = load ptr, ptr %6, align 8, !tbaa !3
  %16 = load ptr, ptr %8, align 8, !tbaa !119
  store ptr %15, ptr %16, align 8, !tbaa !11
  %17 = load ptr, ptr %8, align 8, !tbaa !119
  %18 = load ptr, ptr %17, align 8, !tbaa !11
  %19 = getelementptr inbounds nuw %struct.CVodeMemRec, ptr %18, i32 0, i32 94
  %20 = load ptr, ptr %19, align 8, !tbaa !79
  %21 = icmp eq ptr %20, null
  br i1 %21, label %22, label %26

22:                                               ; preds = %14
  %23 = load ptr, ptr %8, align 8, !tbaa !119
  %24 = load ptr, ptr %23, align 8, !tbaa !11
  %25 = load ptr, ptr %7, align 8, !tbaa !117
  call void (ptr, i32, i32, ptr, ptr, ptr, ...) @cvProcessError(ptr noundef %24, i32 noundef -2, i32 noundef 1937, ptr noundef %25, ptr noundef @.str, ptr noundef @.str.30)
  store i32 -2, ptr %5, align 4
  br label %32

26:                                               ; preds = %14
  %27 = load ptr, ptr %8, align 8, !tbaa !119
  %28 = load ptr, ptr %27, align 8, !tbaa !11
  %29 = getelementptr inbounds nuw %struct.CVodeMemRec, ptr %28, i32 0, i32 94
  %30 = load ptr, ptr %29, align 8, !tbaa !79
  %31 = load ptr, ptr %9, align 8, !tbaa !121
  store ptr %30, ptr %31, align 8, !tbaa !43
  store i32 0, ptr %5, align 4
  br label %32

32:                                               ; preds = %26, %22, %12
  %33 = load i32, ptr %5, align 4
  ret i32 %33
}

; Function Attrs: nounwind uwtable
define i32 @CVodeGetLinWorkSpace(ptr noundef %0, ptr noundef %1, ptr noundef %2) #0 {
  %4 = alloca i32, align 4
  %5 = alloca ptr, align 8
  %6 = alloca ptr, align 8
  %7 = alloca ptr, align 8
  %8 = alloca ptr, align 8
  %9 = alloca ptr, align 8
  %10 = alloca i64, align 8
  %11 = alloca i64, align 8
  %12 = alloca i64, align 8
  %13 = alloca i64, align 8
  %14 = alloca i32, align 4
  %15 = alloca i32, align 4
  store ptr %0, ptr %5, align 8, !tbaa !3
  store ptr %1, ptr %6, align 8, !tbaa !126
  store ptr %2, ptr %7, align 8, !tbaa !126
  call void @llvm.lifetime.start.p0(i64 8, ptr %8) #7
  call void @llvm.lifetime.start.p0(i64 8, ptr %9) #7
  call void @llvm.lifetime.start.p0(i64 8, ptr %10) #7
  call void @llvm.lifetime.start.p0(i64 8, ptr %11) #7
  call void @llvm.lifetime.start.p0(i64 8, ptr %12) #7
  call void @llvm.lifetime.start.p0(i64 8, ptr %13) #7
  call void @llvm.lifetime.start.p0(i64 4, ptr %14) #7
  %16 = load ptr, ptr %5, align 8, !tbaa !3
  %17 = call i32 @cvLs_AccessLMem(ptr noundef %16, ptr noundef @__func__.CVodeGetLinWorkSpace, ptr noundef %8, ptr noundef %9)
  store i32 %17, ptr %14, align 4, !tbaa !20
  %18 = load i32, ptr %14, align 4, !tbaa !20
  %19 = icmp ne i32 %18, 0
  br i1 %19, label %20, label %22

20:                                               ; preds = %3
  %21 = load i32, ptr %14, align 4, !tbaa !20
  store i32 %21, ptr %4, align 4
  store i32 1, ptr %15, align 4
  br label %106

22:                                               ; preds = %3
  %23 = load ptr, ptr %6, align 8, !tbaa !126
  store i64 2, ptr %23, align 8, !tbaa !101
  %24 = load ptr, ptr %7, align 8, !tbaa !126
  store i64 30, ptr %24, align 8, !tbaa !101
  %25 = load ptr, ptr %8, align 8, !tbaa !11
  %26 = getelementptr inbounds nuw %struct.CVodeMemRec, ptr %25, i32 0, i32 18
  %27 = load ptr, ptr %26, align 8, !tbaa !22
  %28 = getelementptr inbounds nuw %struct._generic_N_Vector, ptr %27, i32 0, i32 1
  %29 = load ptr, ptr %28, align 8, !tbaa !31
  %30 = getelementptr inbounds nuw %struct._generic_N_Vector_Ops, ptr %29, i32 0, i32 4
  %31 = load ptr, ptr %30, align 8, !tbaa !128
  %32 = icmp ne ptr %31, null
  br i1 %32, label %33, label %47

33:                                               ; preds = %22
  %34 = load ptr, ptr %8, align 8, !tbaa !11
  %35 = getelementptr inbounds nuw %struct.CVodeMemRec, ptr %34, i32 0, i32 18
  %36 = load ptr, ptr %35, align 8, !tbaa !22
  call void @N_VSpace(ptr noundef %36, ptr noundef %10, ptr noundef %11)
  %37 = load i64, ptr %10, align 8, !tbaa !101
  %38 = mul nsw i64 2, %37
  %39 = load ptr, ptr %6, align 8, !tbaa !126
  %40 = load i64, ptr %39, align 8, !tbaa !101
  %41 = add nsw i64 %40, %38
  store i64 %41, ptr %39, align 8, !tbaa !101
  %42 = load i64, ptr %11, align 8, !tbaa !101
  %43 = mul nsw i64 2, %42
  %44 = load ptr, ptr %7, align 8, !tbaa !126
  %45 = load i64, ptr %44, align 8, !tbaa !101
  %46 = add nsw i64 %45, %43
  store i64 %46, ptr %44, align 8, !tbaa !101
  br label %47

47:                                               ; preds = %33, %22
  %48 = load ptr, ptr %9, align 8, !tbaa !43
  %49 = getelementptr inbounds nuw %struct.CVLsMemRec, ptr %48, i32 0, i32 12
  %50 = load ptr, ptr %49, align 8, !tbaa !73
  %51 = icmp ne ptr %50, null
  br i1 %51, label %52, label %79

52:                                               ; preds = %47
  %53 = load ptr, ptr %9, align 8, !tbaa !43
  %54 = getelementptr inbounds nuw %struct.CVLsMemRec, ptr %53, i32 0, i32 12
  %55 = load ptr, ptr %54, align 8, !tbaa !73
  %56 = getelementptr inbounds nuw %struct._generic_SUNMatrix, ptr %55, i32 0, i32 1
  %57 = load ptr, ptr %56, align 8, !tbaa !80
  %58 = getelementptr inbounds nuw %struct._generic_SUNMatrix_Ops, ptr %57, i32 0, i32 9
  %59 = load ptr, ptr %58, align 8, !tbaa !129
  %60 = icmp ne ptr %59, null
  br i1 %60, label %61, label %78

61:                                               ; preds = %52
  %62 = load ptr, ptr %9, align 8, !tbaa !43
  %63 = getelementptr inbounds nuw %struct.CVLsMemRec, ptr %62, i32 0, i32 12
  %64 = load ptr, ptr %63, align 8, !tbaa !73
  %65 = call i32 @SUNMatSpace(ptr noundef %64, ptr noundef %12, ptr noundef %13)
  store i32 %65, ptr %14, align 4, !tbaa !20
  %66 = load i32, ptr %14, align 4, !tbaa !20
  %67 = icmp eq i32 %66, 0
  br i1 %67, label %68, label %77

68:                                               ; preds = %61
  %69 = load i64, ptr %12, align 8, !tbaa !101
  %70 = load ptr, ptr %6, align 8, !tbaa !126
  %71 = load i64, ptr %70, align 8, !tbaa !101
  %72 = add nsw i64 %71, %69
  store i64 %72, ptr %70, align 8, !tbaa !101
  %73 = load i64, ptr %13, align 8, !tbaa !101
  %74 = load ptr, ptr %7, align 8, !tbaa !126
  %75 = load i64, ptr %74, align 8, !tbaa !101
  %76 = add nsw i64 %75, %73
  store i64 %76, ptr %74, align 8, !tbaa !101
  br label %77

77:                                               ; preds = %68, %61
  br label %78

78:                                               ; preds = %77, %52
  br label %79

79:                                               ; preds = %78, %47
  %80 = load ptr, ptr %9, align 8, !tbaa !43
  %81 = getelementptr inbounds nuw %struct.CVLsMemRec, ptr %80, i32 0, i32 10
  %82 = load ptr, ptr %81, align 8, !tbaa !45
  %83 = getelementptr inbounds nuw %struct._generic_SUNLinearSolver, ptr %82, i32 0, i32 1
  %84 = load ptr, ptr %83, align 8, !tbaa !13
  %85 = getelementptr inbounds nuw %struct._generic_SUNLinearSolver_Ops, ptr %84, i32 0, i32 12
  %86 = load ptr, ptr %85, align 8, !tbaa !130
  %87 = icmp ne ptr %86, null
  br i1 %87, label %88, label %105

88:                                               ; preds = %79
  %89 = load ptr, ptr %9, align 8, !tbaa !43
  %90 = getelementptr inbounds nuw %struct.CVLsMemRec, ptr %89, i32 0, i32 10
  %91 = load ptr, ptr %90, align 8, !tbaa !45
  %92 = call i32 @SUNLinSolSpace(ptr noundef %91, ptr noundef %12, ptr noundef %13)
  store i32 %92, ptr %14, align 4, !tbaa !20
  %93 = load i32, ptr %14, align 4, !tbaa !20
  %94 = icmp eq i32 %93, 0
  br i1 %94, label %95, label %104

95:                                               ; preds = %88
  %96 = load i64, ptr %12, align 8, !tbaa !101
  %97 = load ptr, ptr %6, align 8, !tbaa !126
  %98 = load i64, ptr %97, align 8, !tbaa !101
  %99 = add nsw i64 %98, %96
  store i64 %99, ptr %97, align 8, !tbaa !101
  %100 = load i64, ptr %13, align 8, !tbaa !101
  %101 = load ptr, ptr %7, align 8, !tbaa !126
  %102 = load i64, ptr %101, align 8, !tbaa !101
  %103 = add nsw i64 %102, %100
  store i64 %103, ptr %101, align 8, !tbaa !101
  br label %104

104:                                              ; preds = %95, %88
  br label %105

105:                                              ; preds = %104, %79
  store i32 0, ptr %4, align 4
  store i32 1, ptr %15, align 4
  br label %106

106:                                              ; preds = %105, %20
  call void @llvm.lifetime.end.p0(i64 4, ptr %14) #7
  call void @llvm.lifetime.end.p0(i64 8, ptr %13) #7
  call void @llvm.lifetime.end.p0(i64 8, ptr %12) #7
  call void @llvm.lifetime.end.p0(i64 8, ptr %11) #7
  call void @llvm.lifetime.end.p0(i64 8, ptr %10) #7
  call void @llvm.lifetime.end.p0(i64 8, ptr %9) #7
  call void @llvm.lifetime.end.p0(i64 8, ptr %8) #7
  %107 = load i32, ptr %4, align 4
  ret i32 %107
}