; Function Attrs: nounwind uwtable
define range(i32 -2, 1) i32 @CVodeGetLinWorkSpace(ptr noundef %0, ptr noundef captures(none) %1, ptr noundef captures(none) %2) local_unnamed_addr #0 {
  %4 = alloca i64, align 8
  %5 = alloca i64, align 8
  %6 = alloca i64, align 8
  %7 = alloca i64, align 8
  call void @llvm.lifetime.start.p0(i64 8, ptr nonnull %4) #13
  call void @llvm.lifetime.start.p0(i64 8, ptr nonnull %5) #13
  call void @llvm.lifetime.start.p0(i64 8, ptr nonnull %6) #13
  call void @llvm.lifetime.start.p0(i64 8, ptr nonnull %7) #13
  %8 = icmp eq ptr %0, null
  br i1 %8, label %9, label %10

9:                                                ; preds = %3
  tail call void (ptr, i32, i32, ptr, ptr, ptr, ...) @cvProcessError(ptr noundef null, i32 noundef -1, i32 noundef 1930, ptr noundef nonnull @__func__.CVodeGetLinWorkSpace, ptr noundef nonnull @.str, ptr noundef nonnull @.str.1) #13
  br label %cvLs_AccessLMem.exit.thread

10:                                               ; preds = %3
  %11 = getelementptr inbounds nuw i8, ptr %0, i64 1040
  %12 = load ptr, ptr %11, align 8, !tbaa !69
  %13 = icmp eq ptr %12, null
  br i1 %13, label %14, label %cvLs_AccessLMem.exit

14:                                               ; preds = %10
  tail call void (ptr, i32, i32, ptr, ptr, ptr, ...) @cvProcessError(ptr noundef nonnull %0, i32 noundef -2, i32 noundef 1937, ptr noundef nonnull @__func__.CVodeGetLinWorkSpace, ptr noundef nonnull @.str, ptr noundef nonnull @.str.30) #13
  br label %cvLs_AccessLMem.exit.thread

cvLs_AccessLMem.exit:                             ; preds = %10
  store i64 2, ptr %1, align 8, !tbaa !112
  store i64 30, ptr %2, align 8, !tbaa !112
  %15 = getelementptr inbounds nuw i8, ptr %0, i64 224
  %16 = load ptr, ptr %15, align 8, !tbaa !13
  %17 = getelementptr inbounds nuw i8, ptr %16, i64 8
  %18 = load ptr, ptr %17, align 8, !tbaa !23
  %19 = getelementptr inbounds nuw i8, ptr %18, i64 32
  %20 = load ptr, ptr %19, align 8, !tbaa !113
  %.not15 = icmp eq ptr %20, null
  br i1 %.not15, label %30, label %21

21:                                               ; preds = %cvLs_AccessLMem.exit
  call void @N_VSpace(ptr noundef nonnull %16, ptr noundef nonnull %4, ptr noundef nonnull %5) #13
  %22 = load i64, ptr %4, align 8, !tbaa !112
  %23 = shl nsw i64 %22, 1
  %24 = load i64, ptr %1, align 8, !tbaa !112
  %25 = add nsw i64 %24, %23
  store i64 %25, ptr %1, align 8, !tbaa !112
  %26 = load i64, ptr %5, align 8, !tbaa !112
  %27 = shl nsw i64 %26, 1
  %28 = load i64, ptr %2, align 8, !tbaa !112
  %29 = add nsw i64 %28, %27
  store i64 %29, ptr %2, align 8, !tbaa !112
  br label %30

30:                                               ; preds = %21, %cvLs_AccessLMem.exit
  %31 = getelementptr inbounds nuw i8, ptr %12, i64 88
  %32 = load ptr, ptr %31, align 8, !tbaa !62
  %.not16 = icmp eq ptr %32, null
  br i1 %.not16, label %48, label %33

33:                                               ; preds = %30
  %34 = getelementptr inbounds nuw i8, ptr %32, i64 8
  %35 = load ptr, ptr %34, align 8, !tbaa !70
  %36 = getelementptr inbounds nuw i8, ptr %35, i64 72
  %37 = load ptr, ptr %36, align 8, !tbaa !114
  %.not17 = icmp eq ptr %37, null
  br i1 %.not17, label %48, label %38

38:                                               ; preds = %33
  %39 = call i32 @SUNMatSpace(ptr noundef nonnull %32, ptr noundef nonnull %6, ptr noundef nonnull %7) #13
  %40 = icmp eq i32 %39, 0
  br i1 %40, label %41, label %48

41:                                               ; preds = %38
  %42 = load i64, ptr %6, align 8, !tbaa !112
  %43 = load i64, ptr %1, align 8, !tbaa !112
  %44 = add nsw i64 %43, %42
  store i64 %44, ptr %1, align 8, !tbaa !112
  %45 = load i64, ptr %7, align 8, !tbaa !112
  %46 = load i64, ptr %2, align 8, !tbaa !112
  %47 = add nsw i64 %46, %45
  store i64 %47, ptr %2, align 8, !tbaa !112
  br label %48

48:                                               ; preds = %33, %41, %38, %30
  %49 = getelementptr inbounds nuw i8, ptr %12, i64 72
  %50 = load ptr, ptr %49, align 8, !tbaa !35
  %51 = getelementptr inbounds nuw i8, ptr %50, i64 8
  %52 = load ptr, ptr %51, align 8, !tbaa !3
  %53 = getelementptr inbounds nuw i8, ptr %52, i64 96
  %54 = load ptr, ptr %53, align 8, !tbaa !115
  %.not18 = icmp eq ptr %54, null
  br i1 %.not18, label %cvLs_AccessLMem.exit.thread, label %55

55:                                               ; preds = %48
  %56 = call i32 @SUNLinSolSpace(ptr noundef nonnull %50, ptr noundef nonnull %6, ptr noundef nonnull %7) #13
  %57 = icmp eq i32 %56, 0
  br i1 %57, label %58, label %cvLs_AccessLMem.exit.thread

58:                                               ; preds = %55
  %59 = load i64, ptr %6, align 8, !tbaa !112
  %60 = load i64, ptr %1, align 8, !tbaa !112
  %61 = add nsw i64 %60, %59
  store i64 %61, ptr %1, align 8, !tbaa !112
  %62 = load i64, ptr %7, align 8, !tbaa !112
  %63 = load i64, ptr %2, align 8, !tbaa !112
  %64 = add nsw i64 %63, %62
  store i64 %64, ptr %2, align 8, !tbaa !112
  br label %cvLs_AccessLMem.exit.thread

cvLs_AccessLMem.exit.thread:                      ; preds = %14, %9, %48, %58, %55
  %.0 = phi i32 [ 0, %55 ], [ 0, %58 ], [ 0, %48 ], [ -2, %14 ], [ -1, %9 ]
  call void @llvm.lifetime.end.p0(i64 8, ptr nonnull %7) #13
  call void @llvm.lifetime.end.p0(i64 8, ptr nonnull %6) #13
  call void @llvm.lifetime.end.p0(i64 8, ptr nonnull %5) #13
  call void @llvm.lifetime.end.p0(i64 8, ptr nonnull %4) #13
  ret i32 %.0
}